; Function Attrs: mustprogress uwtable
define noundef signext range(i8 0, 2) i8 @_ZNK6icu_7713DecimalFormat24areSignificantDigitsUsedEv(ptr noundef nonnull readonly align 8 captures(none) dereferenceable(72) %0) local_unnamed_addr #1 align 2 {
  %2 = getelementptr inbounds nuw i8, ptr %0, i64 64
  %3 = load ptr, ptr %2, align 8, !tbaa !25
  %4 = icmp eq ptr %3, null
  br i1 %4, label %5, label %7

5:                                                ; preds = %1
  %6 = tail call noundef nonnull align 8 dereferenceable(757) ptr @_ZN6icu_776number4impl23DecimalFormatProperties10getDefaultEv()
  br label %9

7:                                                ; preds = %1
  %8 = getelementptr inbounds nuw i8, ptr %3, i64 8
  br label %9

9:                                                ; preds = %7, %5
  %.0 = phi ptr [ %6, %5 ], [ %8, %7 ]
  %10 = getelementptr inbounds nuw i8, ptr %.0, i64 116
  %11 = load i32, ptr %10, align 4, !tbaa !126
  %.not = icmp eq i32 %11, -1
  br i1 %.not, label %12, label %17

12:                                               ; preds = %9
  %13 = getelementptr inbounds nuw i8, ptr %.0, i64 96
  %14 = load i32, ptr %13, align 8, !tbaa !127
  %15 = icmp ne i32 %14, -1
  %16 = zext i1 %15 to i8
  br label %17

17:                                               ; preds = %12, %9
  %18 = phi i8 [ 1, %9 ], [ %16, %12 ]
  ret i8 %18
}